target datalayout = "e-m:e-p270:32:32-p271:32:32-p272:64:64-i64:64-i128:128-f80:128-n8:16:32:64-S128"
target triple = "x86_64-pc-linux-gnu"

%struct.BlockRefTableBuffer = type { ptr, ptr, [65536 x i8], i32, i32, i32 }
%struct.BlockRefTableWriter = type { %struct.BlockRefTableBuffer }

@pg_comp_crc32c = external global ptr, align 8

; Function Attrs: nounwind uwtable
define internal void @BlockRefTableWrite(ptr noundef %0, ptr noundef %1, i32 noundef %2) #0 {
  %4 = alloca ptr, align 8
  %5 = alloca ptr, align 8
  %6 = alloca i32, align 4
  store ptr %0, ptr %4, align 8
  store ptr %1, ptr %5, align 8
  store i32 %2, ptr %6, align 4
  %7 = load ptr, ptr @pg_comp_crc32c, align 8
  %8 = load ptr, ptr %4, align 8
  %9 = getelementptr inbounds nuw %struct.BlockRefTableBuffer, ptr %8, i32 0, i32 5
  %10 = load i32, ptr %9, align 8
  %11 = load ptr, ptr %5, align 8
  %12 = load i32, ptr %6, align 4
  %13 = sext i32 %12 to i64
  %14 = call i32 %7(i32 noundef %10, ptr noundef %11, i64 noundef %13)
  %15 = load ptr, ptr %4, align 8
  %16 = getelementptr inbounds nuw %struct.BlockRefTableBuffer, ptr %15, i32 0, i32 5
  store i32 %14, ptr %16, align 8
  %17 = load ptr, ptr %4, align 8
  %18 = getelementptr inbounds nuw %struct.BlockRefTableBuffer, ptr %17, i32 0, i32 3
  %19 = load i32, ptr %18, align 8
  %20 = load i32, ptr %6, align 4
  %21 = add i32 %19, %20
  %22 = icmp sgt i32 %21, 65536
  br i1 %22, label %23, label %39

23:                                               ; preds = %3
  %24 = load ptr, ptr %4, align 8
  %25 = getelementptr inbounds nuw %struct.BlockRefTableBuffer, ptr %24, i32 0, i32 0
  %26 = load ptr, ptr %25, align 8
  %27 = load ptr, ptr %4, align 8
  %28 = getelementptr inbounds nuw %struct.BlockRefTableBuffer, ptr %27, i32 0, i32 1
  %29 = load ptr, ptr %28, align 8
  %30 = load ptr, ptr %4, align 8
  %31 = getelementptr inbounds nuw %struct.BlockRefTableBuffer, ptr %30, i32 0, i32 2
  %32 = getelementptr inbounds [65536 x i8], ptr %31, i64 0, i64 0
  %33 = load ptr, ptr %4, align 8
  %34 = getelementptr inbounds nuw %struct.BlockRefTableBuffer, ptr %33, i32 0, i32 3
  %35 = load i32, ptr %34, align 8
  %36 = call i32 %26(ptr noundef %29, ptr noundef %32, i32 noundef %35)
  %37 = load ptr, ptr %4, align 8
  %38 = getelementptr inbounds nuw %struct.BlockRefTableBuffer, ptr %37, i32 0, i32 3
  store i32 0, ptr %38, align 8
  br label %39

39:                                               ; preds = %23, %3
  %40 = load i32, ptr %6, align 4
  %41 = icmp sge i32 %40, 65536
  br i1 %41, label %42, label %52

42:                                               ; preds = %39
  %43 = load ptr, ptr %4, align 8
  %44 = getelementptr inbounds nuw %struct.BlockRefTableBuffer, ptr %43, i32 0, i32 0
  %45 = load ptr, ptr %44, align 8
  %46 = load ptr, ptr %4, align 8
  %47 = getelementptr inbounds nuw %struct.BlockRefTableBuffer, ptr %46, i32 0, i32 1
  %48 = load ptr, ptr %47, align 8
  %49 = load ptr, ptr %5, align 8
  %50 = load i32, ptr %6, align 4
  %51 = call i32 %45(ptr noundef %48, ptr noundef %49, i32 noundef %50)
  br label %68

52:                                               ; preds = %39
  %53 = load ptr, ptr %4, align 8
  %54 = getelementptr inbounds nuw %struct.BlockRefTableBuffer, ptr %53, i32 0, i32 2
  %55 = load ptr, ptr %4, align 8
  %56 = getelementptr inbounds nuw %struct.BlockRefTableBuffer, ptr %55, i32 0, i32 3
  %57 = load i32, ptr %56, align 8
  %58 = sext i32 %57 to i64
  %59 = getelementptr inbounds [65536 x i8], ptr %54, i64 0, i64 %58
  %60 = load ptr, ptr %5, align 8
  %61 = load i32, ptr %6, align 4
  %62 = sext i32 %61 to i64
  call void @llvm.memcpy.p0.p0.i64(ptr align 1 %59, ptr align 1 %60, i64 %62, i1 false)
  %63 = load i32, ptr %6, align 4
  %64 = load ptr, ptr %4, align 8
  %65 = getelementptr inbounds nuw %struct.BlockRefTableBuffer, ptr %64, i32 0, i32 3
  %66 = load i32, ptr %65, align 8
  %67 = add i32 %66, %63
  store i32 %67, ptr %65, align 8
  br label %68

68:                                               ; preds = %52, %42
  ret void
}

; Function Attrs: nounwind uwtable
define dso_local ptr @CreateBlockRefTableWriter(ptr noundef %0, ptr noundef %1) #0 {
  %3 = alloca ptr, align 8
  %4 = alloca ptr, align 8
  %5 = alloca ptr, align 8
  %6 = alloca i32, align 4
  store ptr %0, ptr %3, align 8
  store ptr %1, ptr %4, align 8
  call void @llvm.lifetime.start.p0(i64 8, ptr %5) #10
  call void @llvm.lifetime.start.p0(i64 4, ptr %6) #10
  store i32 1697321851, ptr %6, align 4
  %7 = call ptr @palloc0(i64 noundef 65568)
  store ptr %7, ptr %5, align 8
  %8 = load ptr, ptr %3, align 8
  %9 = load ptr, ptr %5, align 8
  %10 = getelementptr inbounds nuw %struct.BlockRefTableWriter, ptr %9, i32 0, i32 0
  %11 = getelementptr inbounds nuw %struct.BlockRefTableBuffer, ptr %10, i32 0, i32 0
  store ptr %8, ptr %11, align 8
  %12 = load ptr, ptr %4, align 8
  %13 = load ptr, ptr %5, align 8
  %14 = getelementptr inbounds nuw %struct.BlockRefTableWriter, ptr %13, i32 0, i32 0
  %15 = getelementptr inbounds nuw %struct.BlockRefTableBuffer, ptr %14, i32 0, i32 1
  store ptr %12, ptr %15, align 8
  %16 = load ptr, ptr %5, align 8
  %17 = getelementptr inbounds nuw %struct.BlockRefTableWriter, ptr %16, i32 0, i32 0
  %18 = getelementptr inbounds nuw %struct.BlockRefTableBuffer, ptr %17, i32 0, i32 5
  store i32 -1, ptr %18, align 8
  %19 = load ptr, ptr %5, align 8
  %20 = getelementptr inbounds nuw %struct.BlockRefTableWriter, ptr %19, i32 0, i32 0
  call void @BlockRefTableWrite(ptr noundef %20, ptr noundef %6, i32 noundef 4)
  %21 = load ptr, ptr %5, align 8
  call void @llvm.lifetime.end.p0(i64 4, ptr %6) #10
  call void @llvm.lifetime.end.p0(i64 8, ptr %5) #10
  ret ptr %21
}