; Function Attrs: nounwind uwtable
define dso_local noundef ptr @CreateBlockRefTableWriter(ptr noundef %0, ptr noundef %1) local_unnamed_addr #0 {
  %3 = alloca i32, align 4
  call void @llvm.lifetime.start.p0(i64 4, ptr nonnull %3) #14
  store i32 1697321851, ptr %3, align 4
  %4 = tail call ptr @palloc0(i64 noundef 65568) #14
  store ptr %0, ptr %4, align 8
  %5 = getelementptr inbounds nuw i8, ptr %4, i64 8
  store ptr %1, ptr %5, align 8
  %6 = getelementptr inbounds nuw i8, ptr %4, i64 65560
  store i32 -1, ptr %6, align 8
  %7 = load ptr, ptr @pg_comp_crc32c, align 8
  %8 = call i32 %7(i32 noundef -1, ptr noundef nonnull %3, i64 noundef 4) #14
  store i32 %8, ptr %6, align 8
  %9 = getelementptr inbounds nuw i8, ptr %4, i64 65552
  %10 = load i32, ptr %9, align 8
  %11 = add i32 %10, 4
  %12 = icmp sgt i32 %11, 65536
  br i1 %12, label %13, label %BlockRefTableWrite.exit

13:                                               ; preds = %2
  %14 = load ptr, ptr %4, align 8
  %15 = load ptr, ptr %5, align 8
  %16 = getelementptr inbounds nuw i8, ptr %4, i64 16
  %17 = call i32 %14(ptr noundef %15, ptr noundef nonnull %16, i32 noundef %10) #14
  store i32 0, ptr %9, align 8
  br label %BlockRefTableWrite.exit

BlockRefTableWrite.exit:                          ; preds = %2, %13
  %18 = phi i32 [ 0, %13 ], [ %10, %2 ]
  %19 = getelementptr inbounds nuw i8, ptr %4, i64 16
  %20 = sext i32 %18 to i64
  %21 = getelementptr inbounds [65536 x i8], ptr %19, i64 0, i64 %20
  %22 = load i32, ptr %3, align 4
  store i32 %22, ptr %21, align 1
  %23 = load i32, ptr %9, align 8
  %24 = add i32 %23, 4
  store i32 %24, ptr %9, align 8
  call void @llvm.lifetime.end.p0(i64 4, ptr nonnull %3) #14
  ret ptr %4
}